; ModuleID = 'source-C-CXX/4/786.c'
source_filename = "source-C-CXX/4/786.c"
target datalayout = "e-m:e-p270:32:32-p271:32:32-p272:64:64-i64:64-f80:128-n8:16:32:64-S128"
target triple = "x86_64-pc-linux-gnu"

@.str = private unnamed_addr constant [4 x i8] c"%lf\00", align 1
@.str.1 = private unnamed_addr constant [3 x i8] c"%s\00", align 1
@.str.2 = private unnamed_addr constant [6 x i8] c"error\00", align 1
@.str.3 = private unnamed_addr constant [4 x i8] c"yes\00", align 1
@.str.4 = private unnamed_addr constant [3 x i8] c"no\00", align 1

; Function Attrs: nofree nounwind sspstrong uwtable
define dso_local i32 @main() local_unnamed_addr #0 {
  %1 = alloca double, align 8
  %2 = alloca [10000 x i8], align 16
  %3 = alloca [10000 x i8], align 16
  %4 = bitcast double* %1 to i8*
  call void @llvm.lifetime.start.p0i8(i64 8, i8* nonnull %4) #4
  %5 = getelementptr inbounds [10000 x i8], [10000 x i8]* %2, i64 0, i64 0
  call void @llvm.lifetime.start.p0i8(i64 10000, i8* nonnull %5) #4
  %6 = getelementptr inbounds [10000 x i8], [10000 x i8]* %3, i64 0, i64 0
  call void @llvm.lifetime.start.p0i8(i64 10000, i8* nonnull %6) #4
  %7 = call i32 (i8*, ...) @__isoc99_scanf(i8* getelementptr inbounds ([4 x i8], [4 x i8]* @.str, i64 0, i64 0), double* nonnull %1)
  %8 = call i32 (i8*, ...) @__isoc99_scanf(i8* getelementptr inbounds ([3 x i8], [3 x i8]* @.str.1, i64 0, i64 0), i8* nonnull %5)
  %9 = call i32 (i8*, ...) @__isoc99_scanf(i8* getelementptr inbounds ([3 x i8], [3 x i8]* @.str.1, i64 0, i64 0), i8* nonnull %6)
  %10 = call i64 @strlen(i8* noundef nonnull %5) #5
  %11 = trunc i64 %10 to i32
  %12 = icmp sgt i32 %11, 0
  br i1 %12, label %13, label %31

13:                                               ; preds = %0
  %14 = and i64 %10, 4294967295
  br label %15

15:                                               ; preds = %13, %23
  %16 = phi i64 [ 0, %13 ], [ %27, %23 ]
  %17 = phi i32 [ 0, %13 ], [ %26, %23 ]
  %18 = getelementptr inbounds [10000 x i8], [10000 x i8]* %2, i64 0, i64 %16
  %19 = load i8, i8* %18, align 1, !tbaa !5
  switch i8 %19, label %38 [
    i8 65, label %20
    i8 71, label %20
    i8 67, label %20
    i8 84, label %20
  ]

20:                                               ; preds = %15, %15, %15, %15
  %21 = getelementptr inbounds [10000 x i8], [10000 x i8]* %3, i64 0, i64 %16
  %22 = load i8, i8* %21, align 1, !tbaa !5
  switch i8 %22, label %38 [
    i8 65, label %23
    i8 84, label %23
    i8 67, label %23
    i8 71, label %23
  ]

23:                                               ; preds = %20, %20, %20, %20
  %24 = icmp eq i8 %19, %22
  %25 = zext i1 %24 to i32
  %26 = add nuw nsw i32 %17, %25
  %27 = add nuw nsw i64 %16, 1
  %28 = icmp eq i64 %27, %14
  br i1 %28, label %29, label %15, !llvm.loop !8

29:                                               ; preds = %23
  %30 = sitofp i32 %26 to double
  br label %31

31:                                               ; preds = %29, %0
  %32 = phi double [ 0.000000e+00, %0 ], [ %30, %29 ]
  %33 = sitofp i32 %11 to double
  %34 = fdiv double %32, %33
  %35 = load double, double* %1, align 8, !tbaa !10
  %36 = fcmp ogt double %34, %35
  %37 = select i1 %36, i8* getelementptr inbounds ([4 x i8], [4 x i8]* @.str.3, i64 0, i64 0), i8* getelementptr inbounds ([3 x i8], [3 x i8]* @.str.4, i64 0, i64 0)
  br label %38

38:                                               ; preds = %15, %20, %31
  %39 = phi i8* [ %37, %31 ], [ getelementptr inbounds ([6 x i8], [6 x i8]* @.str.2, i64 0, i64 0), %20 ], [ getelementptr inbounds ([6 x i8], [6 x i8]* @.str.2, i64 0, i64 0), %15 ]
  %40 = call i32 (i8*, ...) @printf(i8* nonnull dereferenceable(1) %39)
  call void @llvm.lifetime.end.p0i8(i64 10000, i8* nonnull %6) #4
  call void @llvm.lifetime.end.p0i8(i64 10000, i8* nonnull %5) #4
  call void @llvm.lifetime.end.p0i8(i64 8, i8* nonnull %4) #4
  ret i32 0
}

; Function Attrs: argmemonly mustprogress nofree nosync nounwind willreturn
declare void @llvm.lifetime.start.p0i8(i64 immarg, i8* nocapture) #1

; Function Attrs: nofree nounwind
declare noundef i32 @__isoc99_scanf(i8* nocapture noundef readonly, ...) local_unnamed_addr #2

; Function Attrs: argmemonly mustprogress nofree nounwind readonly willreturn
declare i64 @strlen(i8* nocapture) local_unnamed_addr #3

; Function Attrs: nofree nounwind
declare noundef i32 @printf(i8* nocapture noundef readonly, ...) local_unnamed_addr #2

; Function Attrs: argmemonly mustprogress nofree nosync nounwind willreturn
declare void @llvm.lifetime.end.p0i8(i64 immarg, i8* nocapture) #1


!llvm.module.flags = !{!0, !1, !2, !3}
!llvm.ident = !{!4}

!0 = !{i32 1, !"wchar_size", i32 4}
!1 = !{i32 7, !"PIC Level", i32 2}
!2 = !{i32 7, !"PIE Level", i32 2}
!3 = !{i32 7, !"uwtable", i32 1}
!4 = !{!"clang version 13.0.0"}
!5 = !{!6, !6, i64 0}
!6 = !{!"omnipotent char", !7, i64 0}
!7 = !{!"Simple C/C++ TBAA"}
!8 = distinct !{!8, !9}
!9 = !{!"llvm.loop.mustprogress"}
!10 = !{!11, !11, i64 0}
!11 = !{!"double", !6, i64 0}
